target datalayout = "e-m:e-p270:32:32-p271:32:32-p272:64:64-i64:64-i128:128-f80:128-n8:16:32:64-S128"
target triple = "x86_64-unknown-linux-gnu"

%"class.proxygen::ByteEventTracker" = type { ptr, i64, %"class.boost::intrusive::list", ptr }
%"class.boost::intrusive::list" = type { %"class.boost::intrusive::list_impl" }
%"class.boost::intrusive::list_impl" = type { %"struct.boost::intrusive::list_impl<boost::intrusive::mhtraits<proxygen::ByteEvent, boost::intrusive::list_member_hook<boost::intrusive::link_mode<boost::intrusive::safe_link>>, &proxygen::ByteEvent::listHook>, unsigned long, true, void>::data_t" }
%"struct.boost::intrusive::list_impl<boost::intrusive::mhtraits<proxygen::ByteEvent, boost::intrusive::list_member_hook<boost::intrusive::link_mode<boost::intrusive::safe_link>>, &proxygen::ByteEvent::listHook>, unsigned long, true, void>::data_t" = type { %"struct.boost::intrusive::list_impl<boost::intrusive::mhtraits<proxygen::ByteEvent, boost::intrusive::list_member_hook<boost::intrusive::link_mode<boost::intrusive::safe_link>>, &proxygen::ByteEvent::listHook>, unsigned long, true, void>::root_plus_size" }
%"struct.boost::intrusive::list_impl<boost::intrusive::mhtraits<proxygen::ByteEvent, boost::intrusive::list_member_hook<boost::intrusive::link_mode<boost::intrusive::safe_link>>, &proxygen::ByteEvent::listHook>, unsigned long, true, void>::root_plus_size" = type { %"struct.boost::intrusive::detail::size_holder", %"struct.boost::intrusive::detail::default_header_holder" }
%"struct.boost::intrusive::detail::size_holder" = type { i64 }
%"struct.boost::intrusive::detail::default_header_holder" = type { %"struct.boost::intrusive::list_node" }
%"struct.boost::intrusive::list_node" = type { ptr, ptr }
%class.anon.45 = type { i8 }

; Function Attrs: mustprogress nounwind uwtable
define internal void @"_ZZN8proxygen16ByteEventTracker15drainByteEventsEvENK3$_0clEPNS_9ByteEventE"(ptr noundef nonnull align 1 dereferenceable(1) %this, ptr noundef %event) #4 align 2 {
entry:
  %this.addr = alloca ptr, align 8
  %event.addr = alloca ptr, align 8
  store ptr %this, ptr %this.addr, align 8
  store ptr %event, ptr %event.addr, align 8
  %0 = load ptr, ptr %event.addr, align 8
  %isnull = icmp eq ptr %0, null
  br i1 %isnull, label %delete.end, label %delete.notnull

delete.notnull:                                   ; preds = %entry
  %vtable = load ptr, ptr %0, align 8
  %vfn = getelementptr inbounds ptr, ptr %vtable, i64 1
  %1 = load ptr, ptr %vfn, align 8
  call void %1(ptr noundef nonnull align 8 dereferenceable(64) %0) #3
  br label %delete.end

delete.end:                                       ; preds = %delete.notnull, %entry
  ret void
}

; Function Attrs: mustprogress nounwind uwtable
define linkonce_odr void @_ZN5boost9intrusive24circular_list_algorithmsINS0_16list_node_traitsIPvEEE4initEPNS0_9list_nodeIS3_EE(ptr noundef %this_node) #4 comdat align 2 {
entry:
  %n.addr.i1 = alloca ptr, align 8
  %prev.addr.i = alloca ptr, align 8
  %n.addr.i = alloca ptr, align 8
  %next.addr.i = alloca ptr, align 8
  %this_node.addr = alloca ptr, align 8
  %null_node = alloca ptr, align 8
  store ptr %this_node, ptr %this_node.addr, align 8
  store ptr null, ptr %null_node, align 8
  %0 = load ptr, ptr %this_node.addr, align 8
  store ptr %0, ptr %n.addr.i, align 8
  store ptr null, ptr %next.addr.i, align 8
  %1 = load ptr, ptr %next.addr.i, align 8
  %2 = load ptr, ptr %n.addr.i, align 8
  store ptr %1, ptr %2, align 8
  %3 = load ptr, ptr %this_node.addr, align 8
  store ptr %3, ptr %n.addr.i1, align 8
  store ptr null, ptr %prev.addr.i, align 8
  %4 = load ptr, ptr %prev.addr.i, align 8
  %5 = load ptr, ptr %n.addr.i1, align 8
  %prev_.i = getelementptr inbounds %"struct.boost::intrusive::list_node", ptr %5, i32 0, i32 1
  store ptr %4, ptr %prev_.i, align 8
  ret void
}

; Function Attrs: mustprogress nounwind uwtable
define linkonce_odr noundef ptr @_ZN5boost9intrusive24circular_list_algorithmsINS0_16list_node_traitsIPvEEE6unlinkEPNS0_9list_nodeIS3_EE(ptr noundef %this_node) #4 comdat align 2 {
entry:
  %n.addr.i4 = alloca ptr, align 8
  %n.addr.i3 = alloca ptr, align 8
  %prev.addr.i = alloca ptr, align 8
  %n.addr.i2 = alloca ptr, align 8
  %next.addr.i = alloca ptr, align 8
  %n.addr.i = alloca ptr, align 8
  %this_node.addr = alloca ptr, align 8
  %next = alloca ptr, align 8
  %prev = alloca ptr, align 8
  store ptr %this_node, ptr %this_node.addr, align 8
  %0 = load ptr, ptr %this_node.addr, align 8
  store ptr %0, ptr %n.addr.i, align 8
  %1 = load ptr, ptr %n.addr.i, align 8
  %2 = load ptr, ptr %1, align 8
  store ptr %2, ptr %next, align 8
  %3 = load ptr, ptr %this_node.addr, align 8
  store ptr %3, ptr %n.addr.i4, align 8
  %4 = load ptr, ptr %n.addr.i4, align 8
  %prev_.i5 = getelementptr inbounds %"struct.boost::intrusive::list_node", ptr %4, i32 0, i32 1
  %5 = load ptr, ptr %prev_.i5, align 8
  store ptr %5, ptr %prev, align 8
  %6 = load ptr, ptr %prev, align 8
  %7 = load ptr, ptr %next, align 8
  store ptr %6, ptr %n.addr.i2, align 8
  store ptr %7, ptr %next.addr.i, align 8
  %8 = load ptr, ptr %next.addr.i, align 8
  %9 = load ptr, ptr %n.addr.i2, align 8
  store ptr %8, ptr %9, align 8
  %10 = load ptr, ptr %next, align 8
  %11 = load ptr, ptr %prev, align 8
  store ptr %10, ptr %n.addr.i3, align 8
  store ptr %11, ptr %prev.addr.i, align 8
  %12 = load ptr, ptr %prev.addr.i, align 8
  %13 = load ptr, ptr %n.addr.i3, align 8
  %prev_.i = getelementptr inbounds %"struct.boost::intrusive::list_node", ptr %13, i32 0, i32 1
  store ptr %12, ptr %prev_.i, align 8
  %14 = load ptr, ptr %next, align 8
  ret ptr %14
}

; Function Attrs: mustprogress nounwind uwtable
define internal void @"_ZN5boost9intrusive9list_implINS0_8mhtraitsIN8proxygen9ByteEventENS0_16list_member_hookIJNS0_9link_modeILNS0_14link_mode_typeE1EEEEEEXadL_ZNS4_8listHookEEEEEmLb1EvE21pop_front_and_disposeIZNS3_16ByteEventTracker15drainByteEventsEvE3$_0EEvT_"(ptr noundef nonnull align 8 dereferenceable(24) %this) #4 align 2 personality ptr @__gxx_personality_v0 {
entry:
  %this.addr.i24 = alloca ptr, align 8
  %v.addr.i23 = alloca ptr, align 8
  %r.addr.i22 = alloca ptr, align 8
  %this.addr.i19 = alloca ptr, align 8
  %ptr_to_member.addr.i18 = alloca i64, align 8
  %parent.i = alloca ptr, align 8
  %member.i = alloca ptr, align 8
  %v.addr.i = alloca ptr, align 8
  %p.addr.i = alloca ptr, align 8
  %member.addr.i = alloca ptr, align 8
  %ptr_to_member.addr.i = alloca i64, align 8
  %r.addr.i = alloca ptr, align 8
  %n.addr.i15 = alloca ptr, align 8
  %this.addr.i13 = alloca ptr, align 8
  %n.addr.i = alloca ptr, align 8
  %this.addr.i9 = alloca ptr, align 8
  %this.addr.i = alloca ptr, align 8
  %disposer = alloca %class.anon.45, align 1
  %this.addr = alloca ptr, align 8
  %to_erase = alloca ptr, align 8
  store ptr %this, ptr %this.addr, align 8
  %this1 = load ptr, ptr %this.addr, align 8
  store ptr %this1, ptr %this.addr.i, align 8
  %this1.i = load ptr, ptr %this.addr.i, align 8
  %m_header.i = getelementptr inbounds %"struct.boost::intrusive::list_impl<boost::intrusive::mhtraits<proxygen::ByteEvent, boost::intrusive::list_member_hook<boost::intrusive::link_mode<boost::intrusive::safe_link>>, &proxygen::ByteEvent::listHook>, unsigned long, true, void>::root_plus_size", ptr %this1.i, i32 0, i32 1
  store ptr %m_header.i, ptr %this.addr.i19, align 8
  %this1.i20 = load ptr, ptr %this.addr.i19, align 8
  store ptr %this1.i20, ptr %r.addr.i22, align 8
  %0 = load ptr, ptr %r.addr.i22, align 8
  store ptr %0, ptr %v.addr.i23, align 8
  %1 = load ptr, ptr %v.addr.i23, align 8
  br label %invoke.cont

invoke.cont:                                      ; preds = %entry
  store ptr %1, ptr %n.addr.i15, align 8
  %2 = load ptr, ptr %n.addr.i15, align 8
  %3 = load ptr, ptr %2, align 8
  store ptr %3, ptr %to_erase, align 8
  %4 = load ptr, ptr %to_erase, align 8
  %call3 = call noundef ptr @_ZN5boost9intrusive24circular_list_algorithmsINS0_16list_node_traitsIPvEEE6unlinkEPNS0_9list_nodeIS3_EE(ptr noundef %4) #3
  store ptr %this1, ptr %this.addr.i13, align 8
  %this1.i14 = load ptr, ptr %this.addr.i13, align 8
  store ptr %this1.i14, ptr %this.addr.i24, align 8
  %this1.i25 = load ptr, ptr %this.addr.i24, align 8
  %5 = load i64, ptr %this1.i25, align 8
  %dec.i = add i64 %5, -1
  store i64 %dec.i, ptr %this1.i25, align 8
  %6 = load ptr, ptr %to_erase, align 8
  call void @_ZN5boost9intrusive24circular_list_algorithmsINS0_16list_node_traitsIPvEEE4initEPNS0_9list_nodeIS3_EE(ptr noundef %6) #3
  store ptr %this1, ptr %this.addr.i9, align 8
  %7 = load ptr, ptr %to_erase, align 8
  store ptr %7, ptr %n.addr.i, align 8
  %8 = load ptr, ptr %n.addr.i, align 8
  store ptr %8, ptr %p.addr.i, align 8
  %9 = load ptr, ptr %p.addr.i, align 8
  store ptr %9, ptr %member.addr.i, align 8
  store i64 8, ptr %ptr_to_member.addr.i, align 8
  %10 = load ptr, ptr %member.addr.i, align 8
  %11 = load i64, ptr %ptr_to_member.addr.i, align 8
  store i64 %11, ptr %ptr_to_member.addr.i18, align 8
  store ptr null, ptr %parent.i, align 8
  %12 = load i64, ptr %ptr_to_member.addr.i18, align 8
  %memptr.offset.i = getelementptr inbounds i8, ptr null, i64 %12
  store ptr %memptr.offset.i, ptr %member.i, align 8
  %13 = load ptr, ptr %member.i, align 8
  %sub.ptr.lhs.cast.i = ptrtoint ptr %13 to i64
  %idx.neg.i = sub i64 0, %sub.ptr.lhs.cast.i
  %add.ptr.i = getelementptr inbounds i8, ptr %10, i64 %idx.neg.i
  br label %_ZN5boost9intrusive8mhtraitsIN8proxygen9ByteEventENS0_16list_member_hookIJNS0_9link_modeILNS0_14link_mode_typeE1EEEEEEXadL_ZNS3_8listHookEEEE12to_value_ptrEPNS0_9list_nodeIPvEE.exit

_ZN5boost9intrusive8mhtraitsIN8proxygen9ByteEventENS0_16list_member_hookIJNS0_9link_modeILNS0_14link_mode_typeE1EEEEEEXadL_ZNS3_8listHookEEEE12to_value_ptrEPNS0_9list_nodeIPvEE.exit: ; preds = %invoke.cont
  store ptr %add.ptr.i, ptr %r.addr.i, align 8
  %14 = load ptr, ptr %r.addr.i, align 8
  store ptr %14, ptr %v.addr.i, align 8
  %15 = load ptr, ptr %v.addr.i, align 8
  br label %invoke.cont6

invoke.cont6:                                     ; preds = %_ZN5boost9intrusive8mhtraitsIN8proxygen9ByteEventENS0_16list_member_hookIJNS0_9link_modeILNS0_14link_mode_typeE1EEEEEEXadL_ZNS3_8listHookEEEE12to_value_ptrEPNS0_9list_nodeIPvEE.exit
  invoke void @"_ZZN8proxygen16ByteEventTracker15drainByteEventsEvENK3$_0clEPNS_9ByteEventE"(ptr noundef nonnull align 1 dereferenceable(1) %disposer, ptr noundef %15)
          to label %invoke.cont8 unwind label %terminate.lpad

invoke.cont8:                                     ; preds = %invoke.cont6
  ret void

terminate.lpad:                                   ; preds = %invoke.cont6
  %16 = landingpad { ptr, i32 }
          catch ptr null
  %17 = extractvalue { ptr, i32 } %16, 0
  call void @__clang_call_terminate(ptr %17) #14
  unreachable
}

; Function Attrs: mustprogress nounwind uwtable
define linkonce_odr noundef zeroext i1 @_ZN5boost9intrusive24circular_list_algorithmsINS0_16list_node_traitsIPvEEE6uniqueEPKNS0_9list_nodeIS3_EE(ptr noundef %this_node) #4 comdat align 2 {
entry:
  %n.addr.i = alloca ptr, align 8
  %this_node.addr = alloca ptr, align 8
  %next = alloca ptr, align 8
  store ptr %this_node, ptr %this_node.addr, align 8
  %0 = load ptr, ptr %this_node.addr, align 8
  store ptr %0, ptr %n.addr.i, align 8
  %1 = load ptr, ptr %n.addr.i, align 8
  %2 = load ptr, ptr %1, align 8
  store ptr %2, ptr %next, align 8
  %3 = load ptr, ptr %next, align 8
  %tobool = icmp ne ptr %3, null
  br i1 %tobool, label %lor.rhs, label %lor.end

lor.rhs:                                          ; preds = %entry
  %4 = load ptr, ptr %next, align 8
  %5 = load ptr, ptr %this_node.addr, align 8
  %cmp = icmp eq ptr %4, %5
  br label %lor.end

lor.end:                                          ; preds = %lor.rhs, %entry
  %6 = phi i1 [ true, %entry ], [ %cmp, %lor.rhs ]
  ret i1 %6
}

; Function Attrs: noreturn nounwind uwtable
define linkonce_odr hidden void @__clang_call_terminate(ptr noundef %0) #5 comdat {
  %2 = call ptr @__cxa_begin_catch(ptr %0) #3
  call void @_ZSt9terminatev() #14
  unreachable
}

; Function Attrs: mustprogress nounwind uwtable
define noundef i64 @_ZN8proxygen16ByteEventTracker15drainByteEventsEv(ptr noundef nonnull align 8 dereferenceable(48) %this) unnamed_addr #4 align 2 personality ptr @__gxx_personality_v0 {
entry:
  %v.addr.i = alloca ptr, align 8
  %r.addr.i = alloca ptr, align 8
  %this.addr.i6 = alloca ptr, align 8
  %this.addr.i3 = alloca ptr, align 8
  %this.addr.i = alloca ptr, align 8
  %this.addr = alloca ptr, align 8
  %numEvents = alloca i64, align 8
  store ptr %this, ptr %this.addr, align 8
  %this1 = load ptr, ptr %this.addr, align 8
  store i64 0, ptr %numEvents, align 8
  br label %while.cond

while.cond:                                       ; preds = %while.body, %entry
  %byteEvents_ = getelementptr inbounds %"class.proxygen::ByteEventTracker", ptr %this1, i32 0, i32 2
  store ptr %byteEvents_, ptr %this.addr.i, align 8
  %this1.i = load ptr, ptr %this.addr.i, align 8
  store ptr %this1.i, ptr %this.addr.i3, align 8
  %this1.i4 = load ptr, ptr %this.addr.i3, align 8
  %m_header.i = getelementptr inbounds %"struct.boost::intrusive::list_impl<boost::intrusive::mhtraits<proxygen::ByteEvent, boost::intrusive::list_member_hook<boost::intrusive::link_mode<boost::intrusive::safe_link>>, &proxygen::ByteEvent::listHook>, unsigned long, true, void>::root_plus_size", ptr %this1.i4, i32 0, i32 1
  store ptr %m_header.i, ptr %this.addr.i6, align 8
  %this1.i7 = load ptr, ptr %this.addr.i6, align 8
  store ptr %this1.i7, ptr %r.addr.i, align 8
  %0 = load ptr, ptr %r.addr.i, align 8
  store ptr %0, ptr %v.addr.i, align 8
  %1 = load ptr, ptr %v.addr.i, align 8
  br label %_ZNK5boost9intrusive9list_implINS0_8mhtraitsIN8proxygen9ByteEventENS0_16list_member_hookIJNS0_9link_modeILNS0_14link_mode_typeE1EEEEEEXadL_ZNS4_8listHookEEEEEmLb1EvE5emptyEv.exit

terminate.lpad.i:                                 ; No predecessors!
  %2 = landingpad { ptr, i32 }
          catch ptr null
  %3 = extractvalue { ptr, i32 } %2, 0
  call void @__clang_call_terminate(ptr %3) #14
  unreachable

_ZNK5boost9intrusive9list_implINS0_8mhtraitsIN8proxygen9ByteEventENS0_16list_member_hookIJNS0_9link_modeILNS0_14link_mode_typeE1EEEEEEXadL_ZNS4_8listHookEEEEEmLb1EvE5emptyEv.exit: ; preds = %while.cond
  %call2.i = call noundef zeroext i1 @_ZN5boost9intrusive24circular_list_algorithmsINS0_16list_node_traitsIPvEEE6uniqueEPKNS0_9list_nodeIS3_EE(ptr noundef %1) #3
  %lnot = xor i1 %call2.i, true
  br i1 %lnot, label %while.body, label %while.end

while.body:                                       ; preds = %_ZNK5boost9intrusive9list_implINS0_8mhtraitsIN8proxygen9ByteEventENS0_16list_member_hookIJNS0_9link_modeILNS0_14link_mode_typeE1EEEEEEXadL_ZNS4_8listHookEEEEEmLb1EvE5emptyEv.exit
  %byteEvents_2 = getelementptr inbounds %"class.proxygen::ByteEventTracker", ptr %this1, i32 0, i32 2
  call void @"_ZN5boost9intrusive9list_implINS0_8mhtraitsIN8proxygen9ByteEventENS0_16list_member_hookIJNS0_9link_modeILNS0_14link_mode_typeE1EEEEEEXadL_ZNS4_8listHookEEEEEmLb1EvE21pop_front_and_disposeIZNS3_16ByteEventTracker15drainByteEventsEvE3$_0EEvT_"(ptr noundef nonnull align 8 dereferenceable(24) %byteEvents_2) #3
  %4 = load i64, ptr %numEvents, align 8
  %inc = add i64 %4, 1
  store i64 %inc, ptr %numEvents, align 8
  br label %while.cond, !llvm.loop !7

while.end:                                        ; preds = %_ZNK5boost9intrusive9list_implINS0_8mhtraitsIN8proxygen9ByteEventENS0_16list_member_hookIJNS0_9link_modeILNS0_14link_mode_typeE1EEEEEEXadL_ZNS4_8listHookEEEEEmLb1EvE5emptyEv.exit
  %5 = load i64, ptr %numEvents, align 8
  ret i64 %5
}