; Function Attrs: mustprogress nounwind uwtable
define noundef i64 @_ZN8proxygen16ByteEventTracker15drainByteEventsEv(ptr noundef nonnull align 8 dereferenceable(48) %this) unnamed_addr #3 align 2 personality ptr @__gxx_personality_v0 {
entry:
  %m_header.i = getelementptr inbounds i8, ptr %this, i64 24
  %0 = load ptr, ptr %m_header.i, align 8
  %tobool.not.i2 = icmp eq ptr %0, null
  %cmp.i3 = icmp eq ptr %0, %m_header.i
  %1 = or i1 %tobool.not.i2, %cmp.i3
  br i1 %1, label %while.end, label %while.body.lr.ph

while.body.lr.ph:                                 ; preds = %entry
  %byteEvents_ = getelementptr inbounds i8, ptr %this, i64 16
  br label %while.body

while.body:                                       ; preds = %while.body.lr.ph, %while.body
  %2 = phi ptr [ %0, %while.body.lr.ph ], [ %7, %while.body ]
  %numEvents.04 = phi i64 [ 0, %while.body.lr.ph ], [ %inc, %while.body ]
  %3 = load ptr, ptr %2, align 8
  %prev_.i5.i.i = getelementptr inbounds i8, ptr %2, i64 8
  %4 = load ptr, ptr %prev_.i5.i.i, align 8
  store ptr %3, ptr %4, align 8
  %prev_.i.i.i = getelementptr inbounds i8, ptr %3, i64 8
  store ptr %4, ptr %prev_.i.i.i, align 8
  %5 = load i64, ptr %byteEvents_, align 8
  %dec.i.i = add i64 %5, -1
  store i64 %dec.i.i, ptr %byteEvents_, align 8
  tail call void @llvm.memset.p0.i64(ptr noundef nonnull align 8 dereferenceable(16) %2, i8 0, i64 16, i1 false)
  %add.ptr.i.i = getelementptr inbounds i8, ptr %2, i64 -8
  %vtable.i.i = load ptr, ptr %add.ptr.i.i, align 8
  %vfn.i.i = getelementptr inbounds i8, ptr %vtable.i.i, i64 8
  %6 = load ptr, ptr %vfn.i.i, align 8
  tail call void %6(ptr noundef nonnull align 8 dereferenceable(64) %add.ptr.i.i) #13
  %inc = add i64 %numEvents.04, 1
  %7 = load ptr, ptr %m_header.i, align 8
  %tobool.not.i = icmp eq ptr %7, null
  %cmp.i = icmp eq ptr %7, %m_header.i
  %8 = or i1 %tobool.not.i, %cmp.i
  br i1 %8, label %while.end, label %while.body, !llvm.loop !4

while.end:                                        ; preds = %while.body, %entry
  %numEvents.0.lcssa = phi i64 [ 0, %entry ], [ %inc, %while.body ]
  ret i64 %numEvents.0.lcssa
}